(dp1
VIntel(R) Corporation/Intel(R) Xeon(R) CPU E5-2670 0 @ 2.60GHz/32902
p2
ccopy_reg
_reconstructor
p3
(cveles.opencl
DeviceInfo
p4
c__builtin__
object
p5
NtRp6
(dp7
S'rating'
p8
(dp9
S'double'
p10
F0.36974225792249882
sS'float'
p11
F0.54341795283582606
ssS'min_dt'
p12
(dp13
g10
F0.4625389575958252
sg11
F0.43297982215881348
ssS'memalign'
p14
I1024
sS'vector_opt'
p15
(dp16
g10
I1
sg11
I1
ssS'version'
p17
F1.2
sS'memsize'
p18
I270462713856
sS'dt'
p19
(dp20
g10
F1.2509767214457195
sg11
F0.79677128791809082
ssS'BLOCK_SIZE'
p21
(dp22
g10
I28
sg11
I32
ssS'desc'
p23
g2
sbsVAdvanced Micro Devices, Inc./Tahiti/4098
p24
g3
(g4
g5
NtRp25
(dp26
g8
(dp27
S'double'
p28
F0.35663473464995349
sS'float'
p29
F0.67105596206911722
ssg12
(dp30
g28
F0.4625389575958252
sg29
F0.43297982215881348
ssg14
I2048
sg15
(dp31
g28
I1
sg29
I1
ssg17
F1.2
sg18
I2825912320
sg19
(dp32
g28
F1.2969543139139812
sg29
F0.64522163073221839
ssg21
(dp33
g28
I16
sg29
I16
ssg23
g24
sbsVNVIDIA Corporation/GeForce GTX TITAN/4318
p34
g3
(g4
g5
NtRp35
(dp36
g8
(dp37
S'double'
p38
F1.1253196817210405
sS'float'
p39
F2.4150904504101951
ssg12
(dp40
g38
F0.4625389575958252
sg39
F0.43297982215881348
ssg14
I4096
sg15
(dp41
g38
I0
sg39
I0
ssg17
F1.1000000000000001
sg18
I6442254336
sg19
(dp42
g38
F0.4110289414723714
sg39
F0.17928099632263184
ssg21
(dp43
g38
I27
sg39
I30
ssg23
g34
sbsVIntel(R) Corporation/Intel(R) Core(TM) i7-3770 CPU @ 3.40GHz/32902
p44
g3
(g4
g5
NtRp45
(dp46
g8
(dp47
S'double'
p48
F0.11552651115151612
sS'float'
p49
F0.17141909185257412
ssg12
(dp50
g48
F0.4625389575958252
sg49
F0.43297982215881348
ssg14
I1024
sg15
(dp51
g48
I1
sg49
I1
ssg17
F1.2
sg18
I16238432256
sg19
(dp52
g48
F4.0037473042805987
sg49
F2.5258553028106689
ssg21
(dp53
g48
I28
sg49
I32
ssg23
g44
sbs.