(dp1
VIntel(R) Corporation/Intel(R) Xeon(R) CPU E5-2670 0 @ 2.60GHz/32902
p2
ccopy_reg
_reconstructor
p3
(cveles.opencl
DeviceInfo
p4
c__builtin__
object
p5
NtRp6
(dp7
S'rating'
p8
(dp9
S'double2'
p10
F0.55162651747417935
sS'double'
p11
F0.49842527268746273
sS'float'
p12
F0.69933599506514277
sS'float2'
p13
F0.42711454695624124
ssS'min_dt'
p14
(dp15
g10
F2.2119019031524658
sg11
F0.69958090782165527
sg12
F0.7187199592590332
sg13
F1.6281303564707439
ssS'memalign'
p16
I1024
sS'version'
p17
F1.2
sS'memsize'
p18
I270462746624
sS'dt'
p19
(dp20
g10
F4.0097816785176592
sg11
F1.4035823345184326
sg12
F1.0277176698048909
sg13
F3.8119290669759116
ssS'BLOCK_SIZE'
p21
(dp22
g10
I10
sg11
I31
sg12
I24
sg13
I32
ssS'desc'
p23
g2
sbsVAdvanced Micro Devices, Inc./Tahiti/4098
p24
g3
(g4
g5
NtRp25
(dp26
g8
(dp27
S'double2'
p28
F0.81565228874199103
sS'double'
p29
F0.4529909159594252
sS'float'
p30
F0.77279392537979197
sS'float2'
p31
F1
ssg14
(dp32
g28
F2.2119019031524658
sg29
F0.69958090782165527
sg30
F0.7187199592590332
sg31
F1.6281303564707439
ssg16
I2048
sg17
F1.2
sg18
L2841640960L
sg19
(dp33
g28
F2.7118196487426758
sg29
F1.5443596839904785
sg30
F0.93002796173095703
sg31
F1.6281303564707439
ssg21
(dp34
g28
I16
sg29
I16
sg30
I15
sg31
I15
ssg23
g24
sbsVNVIDIA Corporation/GeForce GTX TITAN/4318
p35
g3
(g4
g5
NtRp36
(dp37
g8
(dp38
S'double2'
p39
F1.2904603274157143
sS'double'
p40
F2.0910228517391252
sS'float'
p41
F3.4984657735193903
sS'float2'
p42
F4.6552281563005806
ssg14
(dp43
g39
F2.2119019031524658
sg40
F0.69958090782165527
sg41
F0.7187199592590332
sg42
F1.6281303564707439
ssg16
I4096
sg17
F1.1000000000000001
sg18
I6442254336
sg19
(dp44
g39
F1.714040994644165
sg40
F0.3345639705657959
sg41
F0.20543861389160156
sg42
F0.34974233309427899
ssg21
(dp45
g39
I27
sg40
I31
sg41
I26
sg42
I27
ssg23
g35
sbsVIntel(R) Corporation/Intel(R) Core(TM) i7-3770 CPU @ 3.40GHz/32902
p46
g3
(g4
g5
NtRp47
(dp48
g8
(dp49
S'double2'
p50
F0.17808642536369559
sS'double'
p51
F0.16111189170927331
sS'float'
p52
F0.20935402096700109
sS'float2'
p53
F0.13947632224954559
ssg14
(dp54
g50
F2.2119019031524658
sg51
F0.69958090782165527
sg52
F0.7187199592590332
sg53
F1.6281303564707439
ssg16
I1024
sg17
F1.2
sg18
I16238465024
sg19
(dp55
g50
F12.420384645462036
sg51
F4.342205286026001
sg52
F3.4330363273620605
sg53
F11.673166672388712
ssg21
(dp56
g50
I10
sg51
I31
sg52
I24
sg53
I32
ssg23
g46
sbs.